target datalayout = "e-m:e-p270:32:32-p271:32:32-p272:64:64-i64:64-i128:128-f80:128-n8:16:32:64-S128"
target triple = "x86_64-pc-linux-gnu"

%struct.GetBitContext = type { ptr, ptr, i32, i32, i32 }
%struct.CodedBitstreamContext = type { ptr, ptr, ptr, ptr, i32, i32, i32, ptr, ptr, ptr, ptr, i64 }

@.str = private unnamed_addr constant [30 x i8] c"Assertion %s failed at %s:%d\0A\00", align 1
@.str.3 = private unnamed_addr constant [21 x i8] c"libavcodec/cbs_vp8.c\00", align 1
@.str.17 = private unnamed_addr constant [25 x i8] c"width > 0 && width <= 24\00", align 1
@.str.18 = private unnamed_addr constant [33 x i8] c"Invalid value: bitstream ended.\0A\00", align 1
@.str.19 = private unnamed_addr constant [31 x i8] c"start_position <= end_position\00", align 1
@.str.20 = private unnamed_addr constant [46 x i8] c"%s out of range: %u, but must be in [%u,%u].\0A\00", align 1

; Function Attrs: inlinehint nounwind willreturn memory(none) uwtable
define internal i32 @zero_extend(i32 noundef %0, i32 noundef %1) #6 {
  %3 = alloca i32, align 4
  %4 = alloca i32, align 4
  store i32 %0, ptr %3, align 4, !tbaa !11
  store i32 %1, ptr %4, align 4, !tbaa !11
  %5 = load i32, ptr %3, align 4, !tbaa !11
  %6 = load i32, ptr %4, align 4, !tbaa !11
  %7 = zext i32 %6 to i64
  %8 = sub i64 32, %7
  %9 = trunc i64 %8 to i32
  %10 = shl i32 %5, %9
  %11 = load i32, ptr %4, align 4, !tbaa !11
  %12 = zext i32 %11 to i64
  %13 = sub i64 32, %12
  %14 = trunc i64 %13 to i32
  %15 = lshr i32 %10, %14
  ret i32 %15
}

; Function Attrs: inlinehint nounwind uwtable
define internal i32 @get_bits_count(ptr noundef %0) #3 {
  %2 = alloca ptr, align 8
  store ptr %0, ptr %2, align 8, !tbaa !37
  %3 = load ptr, ptr %2, align 8, !tbaa !37
  %4 = getelementptr inbounds nuw %struct.GetBitContext, ptr %3, i32 0, i32 2
  %5 = load i32, ptr %4, align 8, !tbaa !40
  ret i32 %5
}

; Function Attrs: inlinehint nounwind uwtable
define internal i32 @get_bits_le(ptr noundef %0, i32 noundef %1) #3 {
  %3 = alloca ptr, align 8
  %4 = alloca i32, align 4
  %5 = alloca i32, align 4
  %6 = alloca i32, align 4
  %7 = alloca i32, align 4
  %8 = alloca i32, align 4
  store ptr %0, ptr %3, align 8, !tbaa !37
  store i32 %1, ptr %4, align 4, !tbaa !11
  call void @llvm.lifetime.start.p0(i64 4, ptr %5) #8
  call void @llvm.lifetime.start.p0(i64 4, ptr %6) #8
  %9 = load ptr, ptr %3, align 8, !tbaa !37
  %10 = getelementptr inbounds nuw %struct.GetBitContext, ptr %9, i32 0, i32 2
  %11 = load i32, ptr %10, align 8, !tbaa !40
  store i32 %11, ptr %6, align 4, !tbaa !11
  call void @llvm.lifetime.start.p0(i64 4, ptr %7) #8
  call void @llvm.lifetime.start.p0(i64 4, ptr %8) #8
  %12 = load ptr, ptr %3, align 8, !tbaa !37
  %13 = getelementptr inbounds nuw %struct.GetBitContext, ptr %12, i32 0, i32 4
  %14 = load i32, ptr %13, align 8, !tbaa !51
  store i32 %14, ptr %8, align 4, !tbaa !11
  %15 = load ptr, ptr %3, align 8, !tbaa !37
  %16 = getelementptr inbounds nuw %struct.GetBitContext, ptr %15, i32 0, i32 0
  %17 = load ptr, ptr %16, align 8, !tbaa !49
  %18 = load i32, ptr %6, align 4, !tbaa !11
  %19 = lshr i32 %18, 3
  %20 = zext i32 %19 to i64
  %21 = getelementptr inbounds nuw i8, ptr %17, i64 %20
  %22 = load i32, ptr %21, align 1, !tbaa !72
  %23 = load i32, ptr %6, align 4, !tbaa !11
  %24 = and i32 %23, 7
  %25 = lshr i32 %22, %24
  store i32 %25, ptr %7, align 4, !tbaa !11
  %26 = load i32, ptr %7, align 4, !tbaa !11
  %27 = load i32, ptr %4, align 4, !tbaa !11
  %28 = call i32 @zero_extend(i32 noundef %26, i32 noundef %27) #10
  store i32 %28, ptr %5, align 4, !tbaa !11
  %29 = load i32, ptr %8, align 4, !tbaa !11
  %30 = load i32, ptr %6, align 4, !tbaa !11
  %31 = load i32, ptr %4, align 4, !tbaa !11
  %32 = add i32 %30, %31
  %33 = icmp ugt i32 %29, %32
  br i1 %33, label %34, label %38

34:                                               ; preds = %2
  %35 = load i32, ptr %6, align 4, !tbaa !11
  %36 = load i32, ptr %4, align 4, !tbaa !11
  %37 = add i32 %35, %36
  br label %40

38:                                               ; preds = %2
  %39 = load i32, ptr %8, align 4, !tbaa !11
  br label %40

40:                                               ; preds = %38, %34
  %41 = phi i32 [ %37, %34 ], [ %39, %38 ]
  store i32 %41, ptr %6, align 4, !tbaa !11
  %42 = load i32, ptr %6, align 4, !tbaa !11
  %43 = load ptr, ptr %3, align 8, !tbaa !37
  %44 = getelementptr inbounds nuw %struct.GetBitContext, ptr %43, i32 0, i32 2
  store i32 %42, ptr %44, align 8, !tbaa !40
  %45 = load i32, ptr %5, align 4, !tbaa !11
  call void @llvm.lifetime.end.p0(i64 4, ptr %8) #8
  call void @llvm.lifetime.end.p0(i64 4, ptr %7) #8
  call void @llvm.lifetime.end.p0(i64 4, ptr %6) #8
  call void @llvm.lifetime.end.p0(i64 4, ptr %5) #8
  ret i32 %45
}

; Function Attrs: inlinehint nounwind uwtable
define internal i32 @get_bits_left(ptr noundef %0) #3 {
  %2 = alloca ptr, align 8
  store ptr %0, ptr %2, align 8, !tbaa !37
  %3 = load ptr, ptr %2, align 8, !tbaa !37
  %4 = getelementptr inbounds nuw %struct.GetBitContext, ptr %3, i32 0, i32 3
  %5 = load i32, ptr %4, align 4, !tbaa !50
  %6 = load ptr, ptr %2, align 8, !tbaa !37
  %7 = call i32 @get_bits_count(ptr noundef %6)
  %8 = sub nsw i32 %5, %7
  ret i32 %8
}

; Function Attrs: nounwind uwtable
define internal i32 @cbs_vp8_read_unsigned_le(ptr noundef %0, ptr noundef %1, i32 noundef %2, ptr noundef %3, ptr noundef %4, ptr noundef %5, i32 noundef %6, i32 noundef %7) #0 {
  %9 = alloca i32, align 4
  %10 = alloca ptr, align 8
  %11 = alloca ptr, align 8
  %12 = alloca i32, align 4
  %13 = alloca ptr, align 8
  %14 = alloca ptr, align 8
  %15 = alloca ptr, align 8
  %16 = alloca i32, align 4
  %17 = alloca i32, align 4
  %18 = alloca i32, align 4
  %19 = alloca %struct.GetBitContext, align 8
  %20 = alloca i32, align 4
  %21 = alloca i32, align 4
  %22 = alloca i32, align 4
  store ptr %0, ptr %10, align 8, !tbaa !4
  store ptr %1, ptr %11, align 8, !tbaa !37
  store i32 %2, ptr %12, align 4, !tbaa !11
  store ptr %3, ptr %13, align 8, !tbaa !39
  store ptr %4, ptr %14, align 8, !tbaa !63
  store ptr %5, ptr %15, align 8, !tbaa !63
  store i32 %6, ptr %16, align 4, !tbaa !11
  store i32 %7, ptr %17, align 4, !tbaa !11
  call void @llvm.lifetime.start.p0(i64 4, ptr %18) #8
  call void @llvm.lifetime.start.p0(i64 32, ptr %19) #8
  br label %23

23:                                               ; preds = %8
  %24 = load ptr, ptr %10, align 8, !tbaa !4
  %25 = getelementptr inbounds nuw %struct.CodedBitstreamContext, ptr %24, i32 0, i32 5
  %26 = load i32, ptr %25, align 4, !tbaa !65
  %27 = icmp ne i32 %26, 0
  br i1 %27, label %28, label %30

28:                                               ; preds = %23
  %29 = load ptr, ptr %11, align 8, !tbaa !37
  call void @llvm.memcpy.p0.p0.i64(ptr align 8 %19, ptr align 8 %29, i64 32, i1 false), !tbaa.struct !68
  br label %30

30:                                               ; preds = %28, %23
  br label %31

31:                                               ; preds = %30
  br label %32

32:                                               ; preds = %31
  br label %33

33:                                               ; preds = %32
  %34 = load i32, ptr %12, align 4, !tbaa !11
  %35 = icmp sgt i32 %34, 0
  br i1 %35, label %36, label %39

36:                                               ; preds = %33
  %37 = load i32, ptr %12, align 4, !tbaa !11
  %38 = icmp sle i32 %37, 24
  br i1 %38, label %40, label %39

39:                                               ; preds = %36, %33
  call void (ptr, i32, ptr, ...) @av_log(ptr noundef null, i32 noundef 0, ptr noundef @.str, ptr noundef @.str.17, ptr noundef @.str.3, i32 noundef 194)
  call void @abort() #9
  unreachable

40:                                               ; preds = %36
  br label %41

41:                                               ; preds = %40
  br label %42

42:                                               ; preds = %41
  %43 = load ptr, ptr %11, align 8, !tbaa !37
  %44 = call i32 @get_bits_left(ptr noundef %43)
  %45 = load i32, ptr %12, align 4, !tbaa !11
  %46 = icmp slt i32 %44, %45
  br i1 %46, label %47, label %51

47:                                               ; preds = %42
  %48 = load ptr, ptr %10, align 8, !tbaa !4
  %49 = getelementptr inbounds nuw %struct.CodedBitstreamContext, ptr %48, i32 0, i32 0
  %50 = load ptr, ptr %49, align 8, !tbaa !69
  call void (ptr, i32, ptr, ...) @av_log(ptr noundef %50, i32 noundef 16, ptr noundef @.str.18)
  store i32 -1094995529, ptr %9, align 4
  store i32 1, ptr %20, align 4
  br label %106

51:                                               ; preds = %42
  %52 = load ptr, ptr %11, align 8, !tbaa !37
  %53 = load i32, ptr %12, align 4, !tbaa !11
  %54 = call i32 @get_bits_le(ptr noundef %52, i32 noundef %53)
  store i32 %54, ptr %18, align 4, !tbaa !11
  br label %55

55:                                               ; preds = %51
  %56 = load ptr, ptr %10, align 8, !tbaa !4
  %57 = getelementptr inbounds nuw %struct.CodedBitstreamContext, ptr %56, i32 0, i32 5
  %58 = load i32, ptr %57, align 4, !tbaa !65
  %59 = icmp ne i32 %58, 0
  br i1 %59, label %60, label %85

60:                                               ; preds = %55
  call void @llvm.lifetime.start.p0(i64 4, ptr %21) #8
  %61 = call i32 @get_bits_count(ptr noundef %19)
  store i32 %61, ptr %21, align 4, !tbaa !11
  call void @llvm.lifetime.start.p0(i64 4, ptr %22) #8
  %62 = load ptr, ptr %11, align 8, !tbaa !37
  %63 = call i32 @get_bits_count(ptr noundef %62)
  store i32 %63, ptr %22, align 4, !tbaa !11
  br label %64

64:                                               ; preds = %60
  %65 = load i32, ptr %21, align 4, !tbaa !11
  %66 = load i32, ptr %22, align 4, !tbaa !11
  %67 = icmp sle i32 %65, %66
  br i1 %67, label %69, label %68

68:                                               ; preds = %64
  call void (ptr, i32, ptr, ...) @av_log(ptr noundef null, i32 noundef 0, ptr noundef @.str, ptr noundef @.str.19, ptr noundef @.str.3, i32 noundef 203)
  call void @abort() #9
  unreachable

69:                                               ; preds = %64
  br label %70

70:                                               ; preds = %69
  br label %71

71:                                               ; preds = %70
  %72 = load ptr, ptr %10, align 8, !tbaa !4
  %73 = getelementptr inbounds nuw %struct.CodedBitstreamContext, ptr %72, i32 0, i32 8
  %74 = load ptr, ptr %73, align 8, !tbaa !70
  %75 = load ptr, ptr %10, align 8, !tbaa !4
  %76 = getelementptr inbounds nuw %struct.CodedBitstreamContext, ptr %75, i32 0, i32 7
  %77 = load ptr, ptr %76, align 8, !tbaa !71
  %78 = load i32, ptr %22, align 4, !tbaa !11
  %79 = load i32, ptr %21, align 4, !tbaa !11
  %80 = sub nsw i32 %78, %79
  %81 = load ptr, ptr %13, align 8, !tbaa !39
  %82 = load ptr, ptr %14, align 8, !tbaa !63
  %83 = load i32, ptr %18, align 4, !tbaa !11
  %84 = sext i32 %83 to i64
  call void %74(ptr noundef %77, ptr noundef %19, i32 noundef %80, ptr noundef %81, ptr noundef %82, i64 noundef %84)
  call void @llvm.lifetime.end.p0(i64 4, ptr %22) #8
  call void @llvm.lifetime.end.p0(i64 4, ptr %21) #8
  br label %85

85:                                               ; preds = %71, %55
  br label %86

86:                                               ; preds = %85
  br label %87

87:                                               ; preds = %86
  %88 = load i32, ptr %18, align 4, !tbaa !11
  %89 = load i32, ptr %16, align 4, !tbaa !11
  %90 = icmp ult i32 %88, %89
  br i1 %90, label %95, label %91

91:                                               ; preds = %87
  %92 = load i32, ptr %18, align 4, !tbaa !11
  %93 = load i32, ptr %17, align 4, !tbaa !11
  %94 = icmp ugt i32 %92, %93
  br i1 %94, label %95, label %103

95:                                               ; preds = %91, %87
  %96 = load ptr, ptr %10, align 8, !tbaa !4
  %97 = getelementptr inbounds nuw %struct.CodedBitstreamContext, ptr %96, i32 0, i32 0
  %98 = load ptr, ptr %97, align 8, !tbaa !69
  %99 = load ptr, ptr %13, align 8, !tbaa !39
  %100 = load i32, ptr %18, align 4, !tbaa !11
  %101 = load i32, ptr %16, align 4, !tbaa !11
  %102 = load i32, ptr %17, align 4, !tbaa !11
  call void (ptr, i32, ptr, ...) @av_log(ptr noundef %98, i32 noundef 16, ptr noundef @.str.20, ptr noundef %99, i32 noundef %100, i32 noundef %101, i32 noundef %102)
  store i32 -1094995529, ptr %9, align 4
  store i32 1, ptr %20, align 4
  br label %106

103:                                              ; preds = %91
  %104 = load i32, ptr %18, align 4, !tbaa !11
  %105 = load ptr, ptr %15, align 8, !tbaa !63
  store i32 %104, ptr %105, align 4, !tbaa !11
  store i32 0, ptr %9, align 4
  store i32 1, ptr %20, align 4
  br label %106

106:                                              ; preds = %103, %95, %47
  call void @llvm.lifetime.end.p0(i64 32, ptr %19) #8
  call void @llvm.lifetime.end.p0(i64 4, ptr %18) #8
  %107 = load i32, ptr %9, align 4
  ret i32 %107
}