; Function Attrs: nounwind uwtable
define internal fastcc range(i32 -1094995529, 1) i32 @cbs_vp8_read_unsigned_le(ptr noundef readonly captures(none) %0, ptr noundef nonnull captures(none) %1, i32 noundef range(i32 1, 20) %2, ptr noundef %3, ptr noundef nonnull writeonly captures(none) %4, i32 noundef range(i32 0, 158) %5, i32 noundef range(i32 1, 524288) %6) unnamed_addr #0 {
  %8 = alloca %struct.GetBitContext, align 8
  call void @llvm.lifetime.start.p0(i64 32, ptr nonnull %8) #7
  %9 = getelementptr inbounds nuw i8, ptr %0, i64 36
  %10 = load i32, ptr %9, align 4, !tbaa !43
  %.not = icmp eq i32 %10, 0
  br i1 %.not, label %12, label %11

11:                                               ; preds = %7
  call void @llvm.memcpy.p0.p0.i64(ptr noundef nonnull align 8 dereferenceable(32) %8, ptr noundef nonnull align 8 dereferenceable(32) %1, i64 32, i1 false), !tbaa.struct !47
  br label %12

12:                                               ; preds = %11, %7
  %13 = getelementptr i8, ptr %1, i64 16
  %.val39 = load i32, ptr %13, align 8, !tbaa !25
  %14 = getelementptr i8, ptr %1, i64 20
  %.val40 = load i32, ptr %14, align 4, !tbaa !22
  %15 = sub nsw i32 %.val40, %.val39
  %16 = icmp slt i32 %15, %2
  br i1 %16, label %17, label %19

17:                                               ; preds = %12
  %18 = load ptr, ptr %0, align 8, !tbaa !93
  tail call void (ptr, i32, ptr, ...) @av_log(ptr noundef %18, i32 noundef 16, ptr noundef nonnull @.str.18) #7
  br label %49

19:                                               ; preds = %12
  %20 = getelementptr inbounds nuw i8, ptr %1, i64 24
  %21 = load i32, ptr %20, align 8, !tbaa !23
  %22 = load ptr, ptr %1, align 8, !tbaa !20
  %23 = lshr i32 %.val39, 3
  %24 = zext nneg i32 %23 to i64
  %25 = getelementptr inbounds nuw i8, ptr %22, i64 %24
  %26 = load i32, ptr %25, align 1, !tbaa !49
  %27 = and i32 %.val39, 7
  %28 = lshr i32 %26, %27
  %narrow.i.i = sub nuw nsw i32 32, %2
  %29 = lshr i32 -1, %narrow.i.i
  %30 = and i32 %28, %29
  %31 = add i32 %.val39, %2
  %32 = tail call i32 @llvm.umin.i32(i32 %21, i32 %31)
  store i32 %32, ptr %13, align 8, !tbaa !25
  br i1 %.not, label %43, label %33

33:                                               ; preds = %19
  %34 = getelementptr inbounds nuw i8, ptr %8, i64 16
  %.val38 = load i32, ptr %34, align 8, !tbaa !25
  %.not37 = icmp sgt i32 %.val38, %32
  br i1 %.not37, label %35, label %36

35:                                               ; preds = %33
  tail call void (ptr, i32, ptr, ...) @av_log(ptr noundef null, i32 noundef 0, ptr noundef nonnull @.str, ptr noundef nonnull @.str.19, ptr noundef nonnull @.str.3, i32 noundef 203) #7
  tail call void @abort() #8
  unreachable

36:                                               ; preds = %33
  %37 = getelementptr inbounds nuw i8, ptr %0, i64 56
  %38 = load ptr, ptr %37, align 8, !tbaa !51
  %39 = getelementptr inbounds nuw i8, ptr %0, i64 48
  %40 = load ptr, ptr %39, align 8, !tbaa !52
  %41 = sub nsw i32 %32, %.val38
  %42 = zext nneg i32 %30 to i64
  call void %38(ptr noundef %40, ptr noundef nonnull %8, i32 noundef %41, ptr noundef %3, ptr noundef null, i64 noundef %42) #7
  br label %43

43:                                               ; preds = %36, %19
  %44 = icmp samesign ult i32 %30, %5
  %45 = icmp samesign ugt i32 %30, %6
  %or.cond = select i1 %44, i1 true, i1 %45
  br i1 %or.cond, label %46, label %48

46:                                               ; preds = %43
  %47 = load ptr, ptr %0, align 8, !tbaa !93
  call void (ptr, i32, ptr, ...) @av_log(ptr noundef %47, i32 noundef 16, ptr noundef nonnull @.str.20, ptr noundef %3, i32 noundef %30, i32 noundef %5, i32 noundef %6) #7
  br label %49

48:                                               ; preds = %43
  store i32 %30, ptr %4, align 4, !tbaa !26
  br label %49

49:                                               ; preds = %48, %46, %17
  %.0 = phi i32 [ -1094995529, %17 ], [ -1094995529, %46 ], [ 0, %48 ]
  call void @llvm.lifetime.end.p0(i64 32, ptr nonnull %8) #7
  ret i32 %.0
}